; Function Attrs: nounwind ssp uwtable
define dso_local noundef i32 @crypto_aead_chacha20poly1305_encrypt(ptr noundef nonnull %0, ptr noundef writeonly captures(address_is_null) %1, ptr noundef %2, i64 noundef %3, ptr noundef %4, i64 noundef %5, ptr noundef readnone captures(none) %6, ptr noundef nonnull %7, ptr noundef nonnull %8) local_unnamed_addr #0 {
  %10 = icmp ugt i64 %3, -17
  br i1 %10, label %11, label %12

11:                                               ; preds = %9
  tail call void @sodium_misuse() #7
  unreachable

12:                                               ; preds = %9
  %13 = getelementptr i8, ptr %0, i64 %3
  %14 = tail call i32 @crypto_aead_chacha20poly1305_encrypt_detached(ptr noundef %0, ptr noundef %13, ptr noundef null, ptr noundef %2, i64 noundef %3, ptr noundef %4, i64 noundef %5, ptr poison, ptr noundef %7, ptr noundef %8)
  %.not = icmp eq ptr %1, null
  br i1 %.not, label %17, label %15

15:                                               ; preds = %12
  %16 = add nuw i64 %3, 16
  store i64 %16, ptr %1, align 8
  br label %17

17:                                               ; preds = %15, %12
  ret i32 0
}